Certificate:
    Data:
        Version: 3 (0x2)
        Serial Number: 9376052230082986350 (0x821e6dd3a99b016e)
    Signature Algorithm: ecdsa-with-SHA1
        Issuer: C=KR, ST=Seoul, L=Seoul, O=Alice Inc., OU=Alice, CN=ca.alice.com/emailAddress=ca@alice.com
        Validity
            Not Before: Oct 11 08:05:19 2018 GMT
            Not After : Oct 11 08:05:19 2019 GMT
        Subject: C=KR, ST=Seoul, L=Seoul, O=SNU MMLAB, OU=MMLAB, CN=a.edgecache.com/emailAddress=ec@edgecache.com
        Subject Public Key Info:
            Public Key Algorithm: id-ecPublicKey
                Public-Key: (256 bit)
                pub: 
                    04:5e:e7:1f:0d:59:9c:67:c2:bb:3d:c6:77:b8:79:
                    56:7b:8f:59:4b:31:99:57:7c:4e:73:d9:45:9d:66:
                    77:b5:41:2a:19:19:cf:7a:36:4b:0d:19:13:25:67:
                    89:59:ad:49:42:b1:ca:0b:1d:1a:13:1a:8d:64:5f:
                    e8:b0:c6:9c:c0
                ASN1 OID: prime256v1
        X509v3 extensions:
            X509v3 Basic Constraints: 
                CA:FALSE
            X509v3 Key Usage: 
                Digital Signature, Non Repudiation
            X509v3 Subject Key Identifier: 
                D1:4C:5C:A9:53:71:AE:E7:6C:E6:FC:EB:3B:DD:89:98:5E:B4:A7:B1
            X509v3 Authority Key Identifier: 
                keyid:FC:44:73:D1:0C:0B:88:20:63:F3:D6:94:07:F5:7F:E0:62:59:EF:2E

            Authority Information Access: 
                OCSP - URI:http://147.46.215.152:5678

            X509v3 Subject Alternative Name: 
                DNS:*.edgecache.com
    Signature Algorithm: ecdsa-with-SHA1
         30:45:02:21:00:da:79:3d:6a:1a:7d:c7:54:62:c3:9a:13:73:
         5e:28:77:33:5a:d0:c9:74:e6:19:d0:f2:f8:60:0d:4d:0e:47:
         40:02:20:34:b2:7b:17:39:8f:74:6a:d7:96:5c:88:43:21:78:
         9b:ad:36:ee:8a:74:41:25:d0:ab:62:44:ba:43:8d:14:5b
-----BEGIN CERTIFICATE-----
MIICuTCCAmCgAwIBAgIJAIIebdOpmwFuMAkGByqGSM49BAEwgYYxCzAJBgNVBAYT
AktSMQ4wDAYDVQQIDAVTZW91bDEOMAwGA1UEBwwFU2VvdWwxEzARBgNVBAoMCkFs
aWNlIEluYy4xDjAMBgNVBAsMBUFsaWNlMRUwEwYDVQQDDAxjYS5hbGljZS5jb20x
GzAZBgkqhkiG9w0BCQEWDGNhQGFsaWNlLmNvbTAeFw0xODEwMTEwODA1MTlaFw0x
OTEwMTEwODA1MTlaMIGMMQswCQYDVQQGEwJLUjEOMAwGA1UECAwFU2VvdWwxDjAM
BgNVBAcMBVNlb3VsMRIwEAYDVQQKDAlTTlUgTU1MQUIxDjAMBgNVBAsMBU1NTEFC
MRgwFgYDVQQDDA9hLmVkZ2VjYWNoZS5jb20xHzAdBgkqhkiG9w0BCQEWEGVjQGVk
Z2VjYWNoZS5jb20wWTATBgcqhkjOPQIBBggqhkjOPQMBBwNCAARe5x8NWZxnwrs9
xne4eVZ7j1lLMZlXfE5z2UWdZne1QSoZGc96NksNGRMlZ4lZrUlCscoLHRoTGo1k
X+iwxpzAo4GvMIGsMAkGA1UdEwQCMAAwCwYDVR0PBAQDAgbAMB0GA1UdDgQWBBTR
TFypU3Gu52zm/Os73YmYXrSnsTAfBgNVHSMEGDAWgBT8RHPRDAuIIGPz1pQH9X/g
YlnvLjA2BggrBgEFBQcBAQQqMCgwJgYIKwYBBQUHMAGGGmh0dHA6Ly8xNDcuNDYu
MjE1LjE1Mjo1Njc4MBoGA1UdEQQTMBGCDyouZWRnZWNhY2hlLmNvbTAJBgcqhkjO
PQQBA0gAMEUCIQDaeT1qGn3HVGLDmhNzXih3M1rQyXTmGdDy+GANTQ5HQAIgNLJ7
FzmPdGrXllyIQyF4m6027op0QSXQq2JEukONFFs=
-----END CERTIFICATE-----
