Certificate:
    Data:
        Version: 3 (0x2)
        Serial Number: 9376052230082986348 (0x821e6dd3a99b016c)
    Signature Algorithm: ecdsa-with-SHA1
        Issuer: C=KR, ST=Seoul, L=Seoul, O=Alice Inc., OU=Alice, CN=ca.alice.com/emailAddress=ca@alice.com
        Validity
            Not Before: Oct 11 07:56:19 2018 GMT
            Not After : Oct 11 07:56:19 2019 GMT
        Subject: C=KR, ST=Seoul, L=Seoul, O=SNU MMLAB, OU=MMLAB, CN=a.edgecache.com/emailAddress=ec@edgecache.com
        Subject Public Key Info:
            Public Key Algorithm: id-ecPublicKey
                Public-Key: (256 bit)
                pub: 
                    04:5e:e7:1f:0d:59:9c:67:c2:bb:3d:c6:77:b8:79:
                    56:7b:8f:59:4b:31:99:57:7c:4e:73:d9:45:9d:66:
                    77:b5:41:2a:19:19:cf:7a:36:4b:0d:19:13:25:67:
                    89:59:ad:49:42:b1:ca:0b:1d:1a:13:1a:8d:64:5f:
                    e8:b0:c6:9c:c0
                ASN1 OID: prime256v1
        X509v3 extensions:
            X509v3 Basic Constraints: 
                CA:FALSE
            X509v3 Key Usage: 
                Digital Signature
            X509v3 Subject Alternative Name: 
                DNS:*.edgecache.com
    Signature Algorithm: ecdsa-with-SHA1
         30:46:02:21:00:f5:89:34:9c:d9:36:a0:31:3f:ef:0e:fd:22:
         4c:2f:9e:52:7a:1a:2d:7b:1d:5d:49:c8:d2:f0:f2:f5:81:80:
         55:02:21:00:9a:96:4c:59:16:b2:09:d5:34:ed:d0:0e:60:9c:
         4c:7b:48:ec:76:ca:88:96:0f:c4:ec:58:11:81:19:91:3a:27
-----BEGIN CERTIFICATE-----
MIICQDCCAeagAwIBAgIJAIIebdOpmwFsMAkGByqGSM49BAEwgYYxCzAJBgNVBAYT
AktSMQ4wDAYDVQQIDAVTZW91bDEOMAwGA1UEBwwFU2VvdWwxEzARBgNVBAoMCkFs
aWNlIEluYy4xDjAMBgNVBAsMBUFsaWNlMRUwEwYDVQQDDAxjYS5hbGljZS5jb20x
GzAZBgkqhkiG9w0BCQEWDGNhQGFsaWNlLmNvbTAeFw0xODEwMTEwNzU2MTlaFw0x
OTEwMTEwNzU2MTlaMIGMMQswCQYDVQQGEwJLUjEOMAwGA1UECAwFU2VvdWwxDjAM
BgNVBAcMBVNlb3VsMRIwEAYDVQQKDAlTTlUgTU1MQUIxDjAMBgNVBAsMBU1NTEFC
MRgwFgYDVQQDDA9hLmVkZ2VjYWNoZS5jb20xHzAdBgkqhkiG9w0BCQEWEGVjQGVk
Z2VjYWNoZS5jb20wWTATBgcqhkjOPQIBBggqhkjOPQMBBwNCAARe5x8NWZxnwrs9
xne4eVZ7j1lLMZlXfE5z2UWdZne1QSoZGc96NksNGRMlZ4lZrUlCscoLHRoTGo1k
X+iwxpzAozYwNDAJBgNVHRMEAjAAMAsGA1UdDwQEAwIHgDAaBgNVHREEEzARgg8q
LmVkZ2VjYWNoZS5jb20wCQYHKoZIzj0EAQNJADBGAiEA9Yk0nNk2oDE/7w79Ikwv
nlJ6Gi17HV1JyNLw8vWBgFUCIQCalkxZFrIJ1TTt0A5gnEx7SOx2yoiWD8TsWBGB
GZE6Jw==
-----END CERTIFICATE-----
