Certificate:
    Data:
        Version: 3 (0x2)
        Serial Number: 9376052230082986345 (0x821e6dd3a99b0169)
    Signature Algorithm: ecdsa-with-SHA1
        Issuer: C=KR, ST=Seoul, L=Seoul, O=Alice Inc., OU=Alice, CN=ca.alice.com/emailAddress=ca@alice.com
        Validity
            Not Before: Sep 19 07:50:17 2018 GMT
            Not After : Sep 19 07:50:17 2019 GMT
        Subject: C=KR, ST=Seoul, L=Seoul, O=Alice Inc., OU=Alice, CN=www.alice.com/emailAddress=alice@alice.com
        Subject Public Key Info:
            Public Key Algorithm: id-ecPublicKey
                Public-Key: (256 bit)
                pub: 
                    04:fd:98:b6:97:f4:b8:c7:00:ec:7b:43:63:29:dd:
                    cf:4b:4d:a0:df:8b:a0:ec:9f:3a:09:81:84:cb:89:
                    bd:fb:d9:0c:89:84:0e:3a:a9:3d:ba:54:c3:35:12:
                    e1:aa:82:5c:61:d2:cc:5e:6d:25:e2:0d:9a:c2:b2:
                    a1:18:63:be:de
                ASN1 OID: prime256v1
        X509v3 extensions:
            X509v3 Basic Constraints: 
                CA:FALSE
            X509v3 Key Usage: 
                Digital Signature, Non Repudiation
            X509v3 Subject Key Identifier: 
                05:FE:D1:61:B8:50:FE:A2:67:8B:35:A9:D7:1C:8A:47:5B:A5:9B:F7
            X509v3 Authority Key Identifier: 
                keyid:FC:44:73:D1:0C:0B:88:20:63:F3:D6:94:07:F5:7F:E0:62:59:EF:2E

            Authority Information Access: 
                OCSP - URI:http://147.46.215.152:5678

            X509v3 Subject Alternative Name: 
                DNS:*.alice.com
    Signature Algorithm: ecdsa-with-SHA1
         30:46:02:21:00:93:76:3a:e1:1b:5a:91:af:29:07:ad:19:62:
         eb:c9:2f:a2:d0:bd:12:09:d4:ba:2a:c6:d8:f1:fc:cc:f0:e8:
         b7:02:21:00:c5:2e:e3:0b:9d:82:2a:77:c1:f2:22:19:be:1e:
         85:d6:c4:69:78:24:0d:26:d1:22:2f:ed:22:78:6e:e8:e7:ae
-----BEGIN CERTIFICATE-----
MIICtDCCAlqgAwIBAgIJAIIebdOpmwFpMAkGByqGSM49BAEwgYYxCzAJBgNVBAYT
AktSMQ4wDAYDVQQIDAVTZW91bDEOMAwGA1UEBwwFU2VvdWwxEzARBgNVBAoMCkFs
aWNlIEluYy4xDjAMBgNVBAsMBUFsaWNlMRUwEwYDVQQDDAxjYS5hbGljZS5jb20x
GzAZBgkqhkiG9w0BCQEWDGNhQGFsaWNlLmNvbTAeFw0xODA5MTkwNzUwMTdaFw0x
OTA5MTkwNzUwMTdaMIGKMQswCQYDVQQGEwJLUjEOMAwGA1UECAwFU2VvdWwxDjAM
BgNVBAcMBVNlb3VsMRMwEQYDVQQKDApBbGljZSBJbmMuMQ4wDAYDVQQLDAVBbGlj
ZTEWMBQGA1UEAwwNd3d3LmFsaWNlLmNvbTEeMBwGCSqGSIb3DQEJARYPYWxpY2VA
YWxpY2UuY29tMFkwEwYHKoZIzj0CAQYIKoZIzj0DAQcDQgAE/Zi2l/S4xwDse0Nj
Kd3PS02g34ug7J86CYGEy4m9+9kMiYQOOqk9ulTDNRLhqoJcYdLMXm0l4g2awrKh
GGO+3qOBqzCBqDAJBgNVHRMEAjAAMAsGA1UdDwQEAwIGwDAdBgNVHQ4EFgQUBf7R
YbhQ/qJnizWp1xyKR1ulm/cwHwYDVR0jBBgwFoAU/ERz0QwLiCBj89aUB/V/4GJZ
7y4wNgYIKwYBBQUHAQEEKjAoMCYGCCsGAQUFBzABhhpodHRwOi8vMTQ3LjQ2LjIx
NS4xNTI6NTY3ODAWBgNVHREEDzANggsqLmFsaWNlLmNvbTAJBgcqhkjOPQQBA0kA
MEYCIQCTdjrhG1qRrykHrRli68kvotC9EgnUuirG2PH8zPDotwIhAMUu4wudgip3
wfIiGb4ehdbEaXgkDSbRIi/tInhu6Oeu
-----END CERTIFICATE-----
