Certificate:
    Data:
        Version: 3 (0x2)
        Serial Number: 9376052230082986351 (0x821e6dd3a99b016f)
    Signature Algorithm: ecdsa-with-SHA1
        Issuer: C=KR, ST=Seoul, L=Seoul, O=Alice Inc., OU=Alice, CN=ca.alice.com/emailAddress=ca@alice.com
        Validity
            Not Before: Oct 11 10:17:34 2018 GMT
            Not After : Oct 11 10:17:34 2019 GMT
        Subject: C=KR, ST=Seoul, L=Seoul, O=SNU Bob Ltd., OU=SNU Bob, CN=*.bob.com/emailAddress=bob@bob.com
        Subject Public Key Info:
            Public Key Algorithm: id-ecPublicKey
                Public-Key: (256 bit)
                pub: 
                    04:45:f7:2a:e1:ff:ed:67:65:80:22:30:85:3a:c2:
                    66:6a:83:83:30:4c:1d:fd:47:29:b7:c8:59:ca:52:
                    cc:05:50:3c:8e:c1:a6:1c:9c:7f:00:cb:25:de:cc:
                    cb:08:38:e6:67:b3:76:05:5d:5c:ad:23:b3:4f:91:
                    c5:5f:24:aa:ed
                ASN1 OID: prime256v1
        X509v3 extensions:
            X509v3 Basic Constraints: 
                CA:FALSE
            X509v3 Key Usage: 
                Digital Signature
            X509v3 Subject Alternative Name: 
                DNS:*.origin.com
    Signature Algorithm: ecdsa-with-SHA1
         30:46:02:21:00:c8:ce:42:d9:13:e7:2a:f7:6c:be:2e:04:c4:
         a8:d5:05:a7:3e:ed:4e:ab:46:29:31:e0:6b:46:da:ca:e3:2b:
         56:02:21:00:96:9b:bb:62:76:61:77:59:0a:e7:bb:7a:52:cf:
         7f:ca:b2:b2:dd:34:6f:11:95:41:c3:d8:25:dc:8f:26:63:fe
-----BEGIN CERTIFICATE-----
MIICNzCCAd2gAwIBAgIJAIIebdOpmwFvMAkGByqGSM49BAEwgYYxCzAJBgNVBAYT
AktSMQ4wDAYDVQQIDAVTZW91bDEOMAwGA1UEBwwFU2VvdWwxEzARBgNVBAoMCkFs
aWNlIEluYy4xDjAMBgNVBAsMBUFsaWNlMRUwEwYDVQQDDAxjYS5hbGljZS5jb20x
GzAZBgkqhkiG9w0BCQEWDGNhQGFsaWNlLmNvbTAeFw0xODEwMTExMDE3MzRaFw0x
OTEwMTExMDE3MzRaMIGGMQswCQYDVQQGEwJLUjEOMAwGA1UECAwFU2VvdWwxDjAM
BgNVBAcMBVNlb3VsMRUwEwYDVQQKDAxTTlUgQm9iIEx0ZC4xEDAOBgNVBAsMB1NO
VSBCb2IxEjAQBgNVBAMMCSouYm9iLmNvbTEaMBgGCSqGSIb3DQEJARYLYm9iQGJv
Yi5jb20wWTATBgcqhkjOPQIBBggqhkjOPQMBBwNCAARF9yrh/+1nZYAiMIU6wmZq
g4MwTB39Rym3yFnKUswFUDyOwaYcnH8AyyXezMsIOOZns3YFXVytI7NPkcVfJKrt
ozMwMTAJBgNVHRMEAjAAMAsGA1UdDwQEAwIHgDAXBgNVHREEEDAOggwqLm9yaWdp
bi5jb20wCQYHKoZIzj0EAQNJADBGAiEAyM5C2RPnKvdsvi4ExKjVBac+7U6rRikx
4GtG2srjK1YCIQCWm7tidmF3WQrnu3pSz3/KsrLdNG8RlUHD2CXcjyZj/g==
-----END CERTIFICATE-----
