Certificate:
    Data:
        Version: 3 (0x2)
        Serial Number: 9376052230082986347 (0x821e6dd3a99b016b)
    Signature Algorithm: ecdsa-with-SHA1
        Issuer: C=KR, ST=Seoul, L=Seoul, O=Alice Inc., OU=Alice, CN=ca.alice.com/emailAddress=ca@alice.com
        Validity
            Not Before: Oct 10 14:52:15 2018 GMT
            Not After : Oct 10 14:52:15 2019 GMT
        Subject: C=KR, ST=Seoul, L=Seoul, O=SNU Bob Ltd., OU=SNU Bob, CN=*.bob.com/emailAddress=bob@bob.com
        Subject Public Key Info:
            Public Key Algorithm: id-ecPublicKey
                Public-Key: (256 bit)
                pub: 
                    04:45:f7:2a:e1:ff:ed:67:65:80:22:30:85:3a:c2:
                    66:6a:83:83:30:4c:1d:fd:47:29:b7:c8:59:ca:52:
                    cc:05:50:3c:8e:c1:a6:1c:9c:7f:00:cb:25:de:cc:
                    cb:08:38:e6:67:b3:76:05:5d:5c:ad:23:b3:4f:91:
                    c5:5f:24:aa:ed
                ASN1 OID: prime256v1
        X509v3 extensions:
            X509v3 Basic Constraints: 
                CA:FALSE
            X509v3 Key Usage: 
                Digital Signature
            X509v3 Subject Alternative Name: 
                DNS:*.bob.com
    Signature Algorithm: ecdsa-with-SHA1
         30:45:02:20:65:9f:97:62:0c:86:6b:c4:8f:1e:c9:cc:88:2d:
         71:09:6b:b4:86:74:7d:ab:fa:67:28:ac:e4:5c:7e:9c:b4:4a:
         02:21:00:a7:c2:fe:ca:5a:17:0d:a3:74:ec:66:1f:b9:98:37:
         41:7d:e9:ea:15:d6:0a:03:29:f3:68:a8:0c:08:99:c5:0c
-----BEGIN CERTIFICATE-----
MIICMzCCAdqgAwIBAgIJAIIebdOpmwFrMAkGByqGSM49BAEwgYYxCzAJBgNVBAYT
AktSMQ4wDAYDVQQIDAVTZW91bDEOMAwGA1UEBwwFU2VvdWwxEzARBgNVBAoMCkFs
aWNlIEluYy4xDjAMBgNVBAsMBUFsaWNlMRUwEwYDVQQDDAxjYS5hbGljZS5jb20x
GzAZBgkqhkiG9w0BCQEWDGNhQGFsaWNlLmNvbTAeFw0xODEwMTAxNDUyMTVaFw0x
OTEwMTAxNDUyMTVaMIGGMQswCQYDVQQGEwJLUjEOMAwGA1UECAwFU2VvdWwxDjAM
BgNVBAcMBVNlb3VsMRUwEwYDVQQKDAxTTlUgQm9iIEx0ZC4xEDAOBgNVBAsMB1NO
VSBCb2IxEjAQBgNVBAMMCSouYm9iLmNvbTEaMBgGCSqGSIb3DQEJARYLYm9iQGJv
Yi5jb20wWTATBgcqhkjOPQIBBggqhkjOPQMBBwNCAARF9yrh/+1nZYAiMIU6wmZq
g4MwTB39Rym3yFnKUswFUDyOwaYcnH8AyyXezMsIOOZns3YFXVytI7NPkcVfJKrt
ozAwLjAJBgNVHRMEAjAAMAsGA1UdDwQEAwIHgDAUBgNVHREEDTALggkqLmJvYi5j
b20wCQYHKoZIzj0EAQNIADBFAiBln5diDIZrxI8eycyILXEJa7SGdH2r+mcorORc
fpy0SgIhAKfC/spaFw2jdOxmH7mYN0F96eoV1goDKfNoqAwImcUM
-----END CERTIFICATE-----
