Certificate:
    Data:
        Version: 3 (0x2)
        Serial Number: 9376052230082986349 (0x821e6dd3a99b016d)
    Signature Algorithm: ecdsa-with-SHA1
        Issuer: C=KR, ST=Seoul, L=Seoul, O=Alice Inc., OU=Alice, CN=ca.alice.com/emailAddress=ca@alice.com
        Validity
            Not Before: Oct 11 07:58:19 2018 GMT
            Not After : Oct 11 07:58:19 2019 GMT
        Subject: C=KR, ST=Seoul, L=Seoul, O=SNU MMLAB, OU=MMLAB, CN=a.edgecache.com/emailAddress=ec@edgecache.com
        Subject Public Key Info:
            Public Key Algorithm: id-ecPublicKey
                Public-Key: (256 bit)
                pub: 
                    04:5e:e7:1f:0d:59:9c:67:c2:bb:3d:c6:77:b8:79:
                    56:7b:8f:59:4b:31:99:57:7c:4e:73:d9:45:9d:66:
                    77:b5:41:2a:19:19:cf:7a:36:4b:0d:19:13:25:67:
                    89:59:ad:49:42:b1:ca:0b:1d:1a:13:1a:8d:64:5f:
                    e8:b0:c6:9c:c0
                ASN1 OID: prime256v1
        X509v3 extensions:
            X509v3 Basic Constraints: 
                CA:FALSE
            X509v3 Key Usage: 
                Digital Signature
            X509v3 Subject Alternative Name: 
                DNS:*.edgecache.com
    Signature Algorithm: ecdsa-with-SHA1
         30:45:02:20:7e:43:7e:87:da:28:20:43:73:ba:17:20:e8:8a:
         f2:34:b5:24:8f:71:76:1c:18:d9:ae:ca:9a:a4:31:6d:4b:3a:
         02:21:00:9c:33:6e:e0:2d:76:4b:20:96:0e:20:b1:66:5d:0c:
         c9:b3:86:8f:2b:00:7b:31:94:79:83:d2:21:a5:a9:a0:4a
-----BEGIN CERTIFICATE-----
MIICPzCCAeagAwIBAgIJAIIebdOpmwFtMAkGByqGSM49BAEwgYYxCzAJBgNVBAYT
AktSMQ4wDAYDVQQIDAVTZW91bDEOMAwGA1UEBwwFU2VvdWwxEzARBgNVBAoMCkFs
aWNlIEluYy4xDjAMBgNVBAsMBUFsaWNlMRUwEwYDVQQDDAxjYS5hbGljZS5jb20x
GzAZBgkqhkiG9w0BCQEWDGNhQGFsaWNlLmNvbTAeFw0xODEwMTEwNzU4MTlaFw0x
OTEwMTEwNzU4MTlaMIGMMQswCQYDVQQGEwJLUjEOMAwGA1UECAwFU2VvdWwxDjAM
BgNVBAcMBVNlb3VsMRIwEAYDVQQKDAlTTlUgTU1MQUIxDjAMBgNVBAsMBU1NTEFC
MRgwFgYDVQQDDA9hLmVkZ2VjYWNoZS5jb20xHzAdBgkqhkiG9w0BCQEWEGVjQGVk
Z2VjYWNoZS5jb20wWTATBgcqhkjOPQIBBggqhkjOPQMBBwNCAARe5x8NWZxnwrs9
xne4eVZ7j1lLMZlXfE5z2UWdZne1QSoZGc96NksNGRMlZ4lZrUlCscoLHRoTGo1k
X+iwxpzAozYwNDAJBgNVHRMEAjAAMAsGA1UdDwQEAwIHgDAaBgNVHREEEzARgg8q
LmVkZ2VjYWNoZS5jb20wCQYHKoZIzj0EAQNIADBFAiB+Q36H2iggQ3O6FyDoivI0
tSSPcXYcGNmuypqkMW1LOgIhAJwzbuAtdksglg4gsWZdDMmzho8rAHsxlHmD0iGl
qaBK
-----END CERTIFICATE-----
