Certificate:
    Data:
        Version: 3 (0x2)
        Serial Number: 9376052230082986343 (0x821e6dd3a99b0167)
    Signature Algorithm: ecdsa-with-SHA256
        Issuer: C=KR, ST=Seoul, L=Seoul, O=Alice Inc., OU=Alice, CN=ca.alice.com/emailAddress=ca@alice.com
        Validity
            Not Before: Jul 29 10:53:22 2018 GMT
            Not After : Jul 29 10:53:22 2019 GMT
        Subject: C=KR, ST=Seoul, L=Seoul, O=Alice Inc, OU=Alice, CN=*.alice.com/emailAddress=alice@alice.com
        Subject Public Key Info:
            Public Key Algorithm: id-ecPublicKey
                Public-Key: (256 bit)
                pub: 
                    04:cb:7a:1b:3a:a5:9c:92:e2:1f:93:25:93:cc:94:
                    7a:83:ac:5f:18:0c:9a:d9:ff:6f:c7:e9:16:59:83:
                    96:c2:ef:52:17:e6:52:46:89:62:3d:c2:c6:cd:11:
                    f8:25:1a:5a:95:da:3c:3c:7c:97:63:b0:6b:85:f0:
                    0c:b7:a5:06:62
                ASN1 OID: prime256v1
                NIST CURVE: P-256
        X509v3 extensions:
            X509v3 Basic Constraints: 
                CA:FALSE
            X509v3 Key Usage: 
                Digital Signature, Key Encipherment
            X509v3 Subject Key Identifier: 
                82:06:C3:C1:9B:8E:68:B5:B2:90:36:23:A7:96:12:61:05:9B:5F:98
            X509v3 Authority Key Identifier: 
                keyid:FC:44:73:D1:0C:0B:88:20:63:F3:D6:94:07:F5:7F:E0:62:59:EF:2E

            Authority Information Access: 
                OCSP - URI:http://147.46.215.152:5678

            X509v3 Subject Alternative Name: 
                DNS:*.alice.com
    Signature Algorithm: ecdsa-with-SHA256
         30:46:02:21:00:82:41:01:0c:04:2d:bf:a2:a5:dc:db:30:b4:
         90:ab:14:2c:fa:03:f7:03:97:a3:fa:8f:54:e0:ba:d7:3f:32:
         bc:02:21:00:d3:e3:fe:6e:bc:9d:ea:db:08:96:27:fb:32:94:
         e4:dd:a0:ee:5e:a4:c3:6f:c5:e2:f9:51:a7:e4:3c:ed:0e:76
-----BEGIN CERTIFICATE-----
MIICszCCAligAwIBAgIJAIIebdOpmwFnMAoGCCqGSM49BAMCMIGGMQswCQYDVQQG
EwJLUjEOMAwGA1UECAwFU2VvdWwxDjAMBgNVBAcMBVNlb3VsMRMwEQYDVQQKDApB
bGljZSBJbmMuMQ4wDAYDVQQLDAVBbGljZTEVMBMGA1UEAwwMY2EuYWxpY2UuY29t
MRswGQYJKoZIhvcNAQkBFgxjYUBhbGljZS5jb20wHhcNMTgwNzI5MTA1MzIyWhcN
MTkwNzI5MTA1MzIyWjCBhzELMAkGA1UEBhMCS1IxDjAMBgNVBAgMBVNlb3VsMQ4w
DAYDVQQHDAVTZW91bDESMBAGA1UECgwJQWxpY2UgSW5jMQ4wDAYDVQQLDAVBbGlj
ZTEUMBIGA1UEAwwLKi5hbGljZS5jb20xHjAcBgkqhkiG9w0BCQEWD2FsaWNlQGFs
aWNlLmNvbTBZMBMGByqGSM49AgEGCCqGSM49AwEHA0IABMt6GzqlnJLiH5Mlk8yU
eoOsXxgMmtn/b8fpFlmDlsLvUhfmUkaJYj3Cxs0R+CUaWpXaPDx8l2Owa4XwDLel
BmKjgaswgagwCQYDVR0TBAIwADALBgNVHQ8EBAMCBaAwHQYDVR0OBBYEFIIGw8Gb
jmi1spA2I6eWEmEFm1+YMB8GA1UdIwQYMBaAFPxEc9EMC4ggY/PWlAf1f+BiWe8u
MDYGCCsGAQUFBwEBBCowKDAmBggrBgEFBQcwAYYaaHR0cDovLzE0Ny40Ni4yMTUu
MTUyOjU2NzgwFgYDVR0RBA8wDYILKi5hbGljZS5jb20wCgYIKoZIzj0EAwIDSQAw
RgIhAIJBAQwELb+ipdzbMLSQqxQs+gP3A5ej+o9U4LrXPzK8AiEA0+P+bryd6tsI
lif7MpTk3aDuXqTDb8Xi+VGn5DztDnY=
-----END CERTIFICATE-----
