Certificate:
    Data:
        Version: 3 (0x2)
        Serial Number:
            f5:b5:ca:f0:9f:85:52:8b
    Signature Algorithm: sha256WithRSAEncryption
        Issuer: C=KR, ST=Seoul, L=Seoul, O=CarolCA Ltd., OU=Certificate Authority, CN=ca_carol.com/emailAddress=ca@ca_carol.com
        Validity
            Not Before: Mar 19 04:31:22 2017 GMT
            Not After : Mar 19 04:31:22 2018 GMT
        Subject: C=KR, ST=Pusan, L=Pusan, O=Carol CDN, OU=CDN, CN=carol.com/emailAddress=edge@carol.com
        Subject Public Key Info:
            Public Key Algorithm: rsaEncryption
                Public-Key: (2048 bit)
                Modulus:
                    00:bc:92:7f:9b:93:dc:70:b2:f9:5a:07:b7:43:46:
                    f2:38:8a:99:9d:49:ea:bb:36:39:da:68:e3:7d:f0:
                    43:27:65:2c:16:27:67:7d:5c:71:e2:84:51:ec:69:
                    e6:23:8a:0f:07:1b:e1:29:33:71:28:09:d1:4c:15:
                    0d:5f:b2:17:b4:67:51:15:80:df:f9:f5:00:02:95:
                    b3:43:7a:44:9c:80:4a:8a:d0:b4:be:a7:47:81:c2:
                    e7:30:8b:9d:c9:c6:2f:a4:4b:e1:88:4d:8a:59:8c:
                    0b:25:0c:b2:f0:e5:b0:c0:07:ce:87:44:70:e2:cd:
                    93:2b:2f:87:b0:39:5b:a7:a7:86:01:6e:e0:84:f7:
                    6f:4a:1f:7a:a5:35:c7:05:c4:0d:ea:be:55:5d:90:
                    d1:19:cd:dd:c0:ac:36:78:6d:73:5b:1f:54:17:97:
                    85:f3:ea:e1:ad:30:99:a5:ed:40:15:ae:9c:98:09:
                    12:45:da:46:fb:43:fb:78:e3:33:c9:7a:f9:17:3b:
                    1d:70:d8:7a:0b:de:4a:34:26:33:92:d7:4b:de:45:
                    88:c4:bf:1b:99:df:3c:33:e6:eb:08:37:36:1f:58:
                    7a:30:a3:1d:81:13:07:3a:4e:60:5f:07:5f:f2:ff:
                    39:a0:c3:c5:45:60:12:87:9b:f4:12:fe:5d:f2:79:
                    9c:8b
                Exponent: 65537 (0x10001)
        X509v3 extensions:
            X509v3 Basic Constraints: 
                CA:FALSE
            Netscape Comment: 
                OpenSSL Generated Certificate
            X509v3 Subject Key Identifier: 
                B3:6D:F3:E7:0D:37:23:65:25:6B:4A:78:0A:E3:39:26:32:10:0C:EE
            X509v3 Authority Key Identifier: 
                keyid:5A:08:FF:D5:EA:E1:36:B9:76:61:73:3A:A2:A1:0C:80:8C:70:16:C6

            Authority Information Access: 
                OCSP - URI:http://147.46.215.152:5555

    Signature Algorithm: sha256WithRSAEncryption
         6d:0b:cb:f7:12:da:69:e7:8d:35:36:c2:97:24:ea:04:f5:2d:
         a8:cf:09:0b:b9:da:a9:6e:85:fb:82:7c:17:fe:2a:3a:ee:a4:
         c6:31:1c:63:64:c0:3f:df:6a:cc:57:bf:91:3c:79:41:58:58:
         f7:05:fe:11:2a:14:7a:20:53:d6:54:82:28:db:2f:dd:da:74:
         f2:6f:14:28:60:02:90:4d:b7:23:22:65:e6:6d:15:2d:1c:85:
         00:36:96:96:38:93:58:f6:62:22:0e:66:fa:6a:85:9f:cf:3b:
         55:3b:23:ef:ac:c6:13:18:1a:c9:1a:a1:6d:69:4e:8e:80:e3:
         70:4c:5b:9f:8d:4e:b5:a4:a8:31:64:63:5c:09:f7:64:92:b0:
         5e:de:81:c2:fa:9f:5f:5d:07:b3:a0:ad:e6:cb:8f:33:2e:16:
         df:39:41:54:d6:6e:5b:de:dd:9f:cc:63:13:bd:73:29:fe:7a:
         0f:78:70:ce:7b:7d:2f:6c:ef:ee:6c:32:7f:ef:76:fa:32:da:
         53:1a:49:8b:80:fa:4f:55:15:a1:93:8a:23:e7:79:36:f5:8c:
         90:10:89:fd:ed:d6:46:d1:b1:6a:2f:d0:59:e7:84:77:f0:10:
         e8:d2:15:b0:94:37:c3:68:ea:c9:d2:6e:0f:ea:7f:a0:c0:8f:
         7f:de:69:5f
-----BEGIN CERTIFICATE-----
MIIEVzCCAz+gAwIBAgIJAPW1yvCfhVKLMA0GCSqGSIb3DQEBCwUAMIGbMQswCQYD
VQQGEwJLUjEOMAwGA1UECAwFU2VvdWwxDjAMBgNVBAcMBVNlb3VsMRUwEwYDVQQK
DAxDYXJvbENBIEx0ZC4xHjAcBgNVBAsMFUNlcnRpZmljYXRlIEF1dGhvcml0eTEV
MBMGA1UEAwwMY2FfY2Fyb2wuY29tMR4wHAYJKoZIhvcNAQkBFg9jYUBjYV9jYXJv
bC5jb20wHhcNMTcwMzE5MDQzMTIyWhcNMTgwMzE5MDQzMTIyWjCBgjELMAkGA1UE
BhMCS1IxDjAMBgNVBAgMBVB1c2FuMQ4wDAYDVQQHDAVQdXNhbjESMBAGA1UECgwJ
Q2Fyb2wgQ0ROMQwwCgYDVQQLDANDRE4xEjAQBgNVBAMMCWNhcm9sLmNvbTEdMBsG
CSqGSIb3DQEJARYOZWRnZUBjYXJvbC5jb20wggEiMA0GCSqGSIb3DQEBAQUAA4IB
DwAwggEKAoIBAQC8kn+bk9xwsvlaB7dDRvI4ipmdSeq7NjnaaON98EMnZSwWJ2d9
XHHihFHsaeYjig8HG+EpM3EoCdFMFQ1fshe0Z1EVgN/59QAClbNDekScgEqK0LS+
p0eBwucwi53Jxi+kS+GITYpZjAslDLLw5bDAB86HRHDizZMrL4ewOVunp4YBbuCE
929KH3qlNccFxA3qvlVdkNEZzd3ArDZ4bXNbH1QXl4Xz6uGtMJml7UAVrpyYCRJF
2kb7Q/t44zPJevkXOx1w2HoL3ko0JjOS10veRYjEvxuZ3zwz5usINzYfWHowox2B
Ewc6TmBfB1/y/zmgw8VFYBKHm/QS/l3yeZyLAgMBAAGjgbQwgbEwCQYDVR0TBAIw
ADAsBglghkgBhvhCAQ0EHxYdT3BlblNTTCBHZW5lcmF0ZWQgQ2VydGlmaWNhdGUw
HQYDVR0OBBYEFLNt8+cNNyNlJWtKeArjOSYyEAzuMB8GA1UdIwQYMBaAFFoI/9Xq
4Ta5dmFzOqKhDICMcBbGMDYGCCsGAQUFBwEBBCowKDAmBggrBgEFBQcwAYYaaHR0
cDovLzE0Ny40Ni4yMTUuMTUyOjU1NTUwDQYJKoZIhvcNAQELBQADggEBAG0Ly/cS
2mnnjTU2wpck6gT1LajPCQu52qluhfuCfBf+KjrupMYxHGNkwD/fasxXv5E8eUFY
WPcF/hEqFHogU9ZUgijbL93adPJvFChgApBNtyMiZeZtFS0chQA2lpY4k1j2YiIO
ZvpqhZ/PO1U7I++sxhMYGskaoW1pTo6A43BMW5+NTrWkqDFkY1wJ92SSsF7egcL6
n19dB7OgrebLjzMuFt85QVTWblve3Z/MYxO9cyn+eg94cM57fS9s7+5sMn/vdvoy
2lMaSYuA+k9VFaGTiiPneTb1jJAQif3t1kbRsWov0FnnhHfwEOjSFbCUN8No6snS
bg/qf6DAj3/eaV8=
-----END CERTIFICATE-----
